target datalayout = "e-m:e-p270:32:32-p271:32:32-p272:64:64-i64:64-i128:128-f80:128-n8:16:32:64-S128"
target triple = "x86_64-pc-linux-gnu"

%struct._packet_info = type { ptr, ptr, i32, i32, %struct.nstime_t, %struct.nstime_t, %struct.nstime_t, i32, ptr, ptr, ptr, ptr, %struct._address, %struct._address, %struct._address, %struct._address, %struct._address, %struct._address, i32, ptr, i32, %struct.anon, i32, i32, i32, i32, ptr, i32, ptr, ptr, i16, i16, i32, i32, i16, i32, i32, ptr, ptr, ptr, i8, i8, i16, i16, i16, i32, i16, i16, ptr, ptr, ptr, ptr, ptr, i32 }
%struct.nstime_t = type { i64, i32 }
%struct._address = type { i32, i32, ptr, ptr }
%struct.anon = type { i8, [3 x i8] }
%struct._wmem_tree_key_t = type { i32, ptr }
%struct._frame_data = type { i32, i32, i32, i32, i64, ptr, ptr, ptr, i16, i16, %struct.nstime_t, %struct.nstime_t, i32, i32, i8 }
%struct._bluetooth_data_t = type { i32, i32, ptr, ptr, ptr, ptr, ptr, ptr, ptr, ptr, ptr, ptr, i32, %union.anon.4 }
%union.anon.4 = type { ptr }
%struct._localhost_name_entry_t = type { i32, i32, ptr }

; Function Attrs: nounwind uwtable
define hidden void @save_local_device_name_from_eir_ad(ptr noundef %0, i32 noundef %1, ptr noundef %2, i8 noundef zeroext %3, ptr noundef %4) #1 {
  %6 = alloca ptr, align 8
  %7 = alloca i32, align 4
  %8 = alloca ptr, align 8
  %9 = alloca i8, align 1
  %10 = alloca ptr, align 8
  %11 = alloca i32, align 4
  %12 = alloca i8, align 1
  %13 = alloca [4 x %struct._wmem_tree_key_t], align 16
  %14 = alloca i32, align 4
  %15 = alloca i32, align 4
  %16 = alloca i32, align 4
  %17 = alloca ptr, align 8
  %18 = alloca ptr, align 8
  store ptr %0, ptr %6, align 8
  store i32 %1, ptr %7, align 4
  store ptr %2, ptr %8, align 8
  store i8 %3, ptr %9, align 1
  store ptr %4, ptr %10, align 8
  store i32 0, ptr %11, align 4
  %19 = load ptr, ptr %8, align 8
  %20 = getelementptr inbounds %struct._packet_info, ptr %19, i32 0, i32 8
  %21 = load ptr, ptr %20, align 8
  %22 = getelementptr inbounds %struct._frame_data, ptr %21, i32 0, i32 9
  %23 = load i16, ptr %22, align 2
  %24 = lshr i16 %23, 3
  %25 = and i16 %24, 1
  %26 = zext i16 %25 to i32
  %27 = icmp ne i32 %26, 0
  br i1 %27, label %31, label %28

28:                                               ; preds = %5
  %29 = load ptr, ptr %10, align 8
  %30 = icmp ne ptr %29, null
  br i1 %30, label %32, label %31

31:                                               ; preds = %28, %5
  br label %118

32:                                               ; preds = %28
  br label %33

33:                                               ; preds = %112, %32
  %34 = load i32, ptr %11, align 4
  %35 = load i8, ptr %9, align 1
  %36 = zext i8 %35 to i32
  %37 = icmp slt i32 %34, %36
  br i1 %37, label %38, label %118

38:                                               ; preds = %33
  %39 = load ptr, ptr %6, align 8
  %40 = load i32, ptr %7, align 4
  %41 = load i32, ptr %11, align 4
  %42 = add i32 %40, %41
  %43 = call zeroext i8 @tvb_get_guint8(ptr noundef %39, i32 noundef %42)
  store i8 %43, ptr %12, align 1
  %44 = load i8, ptr %12, align 1
  %45 = zext i8 %44 to i32
  %46 = icmp eq i32 %45, 0
  br i1 %46, label %47, label %48

47:                                               ; preds = %38
  br label %118

48:                                               ; preds = %38
  %49 = load ptr, ptr %6, align 8
  %50 = load i32, ptr %7, align 4
  %51 = load i32, ptr %11, align 4
  %52 = add i32 %50, %51
  %53 = add i32 %52, 1
  %54 = call zeroext i8 @tvb_get_guint8(ptr noundef %49, i32 noundef %53)
  %55 = zext i8 %54 to i32
  switch i32 %55, label %112 [
    i32 8, label %56
    i32 9, label %56
  ]

56:                                               ; preds = %48, %48
  %57 = load ptr, ptr %8, align 8
  %58 = getelementptr inbounds %struct._packet_info, ptr %57, i32 0, i32 50
  %59 = load ptr, ptr %58, align 8
  %60 = load ptr, ptr %6, align 8
  %61 = load i32, ptr %7, align 4
  %62 = load i32, ptr %11, align 4
  %63 = add i32 %61, %62
  %64 = add i32 %63, 2
  %65 = load i8, ptr %12, align 1
  %66 = zext i8 %65 to i32
  %67 = sub i32 %66, 1
  %68 = call ptr @tvb_get_string_enc(ptr noundef %59, ptr noundef %60, i32 noundef %64, i32 noundef %67, i32 noundef 0)
  store ptr %68, ptr %17, align 8
  %69 = load ptr, ptr %10, align 8
  %70 = getelementptr inbounds %struct._bluetooth_data_t, ptr %69, i32 0, i32 0
  %71 = load i32, ptr %70, align 8
  store i32 %71, ptr %14, align 4
  %72 = load ptr, ptr %10, align 8
  %73 = getelementptr inbounds %struct._bluetooth_data_t, ptr %72, i32 0, i32 1
  %74 = load i32, ptr %73, align 4
  store i32 %74, ptr %15, align 4
  %75 = load ptr, ptr %8, align 8
  %76 = getelementptr inbounds %struct._packet_info, ptr %75, i32 0, i32 3
  %77 = load i32, ptr %76, align 4
  store i32 %77, ptr %16, align 4
  %78 = getelementptr [4 x %struct._wmem_tree_key_t], ptr %13, i64 0, i64 0
  %79 = getelementptr inbounds %struct._wmem_tree_key_t, ptr %78, i32 0, i32 0
  store i32 1, ptr %79, align 16
  %80 = getelementptr [4 x %struct._wmem_tree_key_t], ptr %13, i64 0, i64 0
  %81 = getelementptr inbounds %struct._wmem_tree_key_t, ptr %80, i32 0, i32 1
  store ptr %14, ptr %81, align 8
  %82 = getelementptr [4 x %struct._wmem_tree_key_t], ptr %13, i64 0, i64 1
  %83 = getelementptr inbounds %struct._wmem_tree_key_t, ptr %82, i32 0, i32 0
  store i32 1, ptr %83, align 16
  %84 = getelementptr [4 x %struct._wmem_tree_key_t], ptr %13, i64 0, i64 1
  %85 = getelementptr inbounds %struct._wmem_tree_key_t, ptr %84, i32 0, i32 1
  store ptr %15, ptr %85, align 8
  %86 = getelementptr [4 x %struct._wmem_tree_key_t], ptr %13, i64 0, i64 2
  %87 = getelementptr inbounds %struct._wmem_tree_key_t, ptr %86, i32 0, i32 0
  store i32 1, ptr %87, align 16
  %88 = getelementptr [4 x %struct._wmem_tree_key_t], ptr %13, i64 0, i64 2
  %89 = getelementptr inbounds %struct._wmem_tree_key_t, ptr %88, i32 0, i32 1
  store ptr %16, ptr %89, align 8
  %90 = getelementptr [4 x %struct._wmem_tree_key_t], ptr %13, i64 0, i64 3
  %91 = getelementptr inbounds %struct._wmem_tree_key_t, ptr %90, i32 0, i32 0
  store i32 0, ptr %91, align 16
  %92 = getelementptr [4 x %struct._wmem_tree_key_t], ptr %13, i64 0, i64 3
  %93 = getelementptr inbounds %struct._wmem_tree_key_t, ptr %92, i32 0, i32 1
  store ptr null, ptr %93, align 8
  %94 = call ptr @wmem_file_scope()
  %95 = call noalias ptr @wmem_alloc(ptr noundef %94, i64 noundef 16)
  store ptr %95, ptr %18, align 8
  %96 = load i32, ptr %14, align 4
  %97 = load ptr, ptr %18, align 8
  %98 = getelementptr inbounds %struct._localhost_name_entry_t, ptr %97, i32 0, i32 0
  store i32 %96, ptr %98, align 8
  %99 = load i32, ptr %15, align 4
  %100 = load ptr, ptr %18, align 8
  %101 = getelementptr inbounds %struct._localhost_name_entry_t, ptr %100, i32 0, i32 1
  store i32 %99, ptr %101, align 4
  %102 = call ptr @wmem_file_scope()
  %103 = load ptr, ptr %17, align 8
  %104 = call noalias ptr @wmem_strdup(ptr noundef %102, ptr noundef %103)
  %105 = load ptr, ptr %18, align 8
  %106 = getelementptr inbounds %struct._localhost_name_entry_t, ptr %105, i32 0, i32 2
  store ptr %104, ptr %106, align 8
  %107 = load ptr, ptr %10, align 8
  %108 = getelementptr inbounds %struct._bluetooth_data_t, ptr %107, i32 0, i32 10
  %109 = load ptr, ptr %108, align 8
  %110 = getelementptr inbounds [4 x %struct._wmem_tree_key_t], ptr %13, i64 0, i64 0
  %111 = load ptr, ptr %18, align 8
  call void @wmem_tree_insert32_array(ptr noundef %109, ptr noundef %110, ptr noundef %111)
  br label %112

112:                                              ; preds = %56, %48
  %113 = load i8, ptr %12, align 1
  %114 = zext i8 %113 to i32
  %115 = add i32 %114, 1
  %116 = load i32, ptr %11, align 4
  %117 = add i32 %116, %115
  store i32 %117, ptr %11, align 4
  br label %33, !llvm.loop !4

118:                                              ; preds = %47, %33, %31
  ret void
}