; Function Attrs: nounwind uwtable
define hidden void @save_local_device_name_from_eir_ad(ptr noundef %0, i32 noundef %1, ptr noundef readonly captures(none) %2, i8 noundef zeroext %3, ptr noundef readonly %4) local_unnamed_addr #1 {
  %6 = alloca [4 x %struct._wmem_tree_key_t], align 16
  %7 = alloca i32, align 4
  %8 = alloca i32, align 4
  %9 = alloca i32, align 4
  %10 = getelementptr inbounds nuw i8, ptr %2, i64 80
  %11 = load ptr, ptr %10, align 8
  %12 = getelementptr inbounds nuw i8, ptr %11, i64 50
  %13 = load i16, ptr %12, align 2
  %14 = and i16 %13, 8
  %15 = icmp eq i16 %14, 0
  %16 = icmp ne ptr %4, null
  %or.cond = and i1 %16, %15
  br i1 %or.cond, label %.preheader, label %.loopexit

.preheader:                                       ; preds = %5
  %17 = zext i8 %3 to i32
  %.not = icmp eq i8 %3, 0
  br i1 %.not, label %.loopexit, label %.lr.ph

.lr.ph:                                           ; preds = %.preheader
  %18 = getelementptr inbounds nuw i8, ptr %2, i64 408
  %19 = getelementptr inbounds nuw i8, ptr %4, i64 4
  %20 = getelementptr inbounds nuw i8, ptr %2, i64 20
  %21 = getelementptr inbounds nuw i8, ptr %6, i64 8
  %22 = getelementptr inbounds nuw i8, ptr %6, i64 16
  %23 = getelementptr inbounds nuw i8, ptr %6, i64 24
  %24 = getelementptr inbounds nuw i8, ptr %6, i64 32
  %25 = getelementptr inbounds nuw i8, ptr %6, i64 40
  %26 = getelementptr inbounds nuw i8, ptr %6, i64 48
  %27 = getelementptr inbounds nuw i8, ptr %6, i64 56
  %28 = getelementptr inbounds nuw i8, ptr %4, i64 72
  br label %29

29:                                               ; preds = %.lr.ph, %55
  %.028 = phi i32 [ 0, %.lr.ph ], [ %57, %55 ]
  %30 = add i32 %.028, %1
  %31 = call zeroext i8 @tvb_get_guint8(ptr noundef %0, i32 noundef %30) #9
  %32 = zext i8 %31 to i32
  %33 = icmp eq i8 %31, 0
  br i1 %33, label %.loopexit, label %34

34:                                               ; preds = %29
  %35 = add i32 %30, 1
  %36 = call zeroext i8 @tvb_get_guint8(ptr noundef %0, i32 noundef %35) #9
  %37 = and i8 %36, -2
  %switch = icmp eq i8 %37, 8
  br i1 %switch, label %38, label %55

38:                                               ; preds = %34
  %39 = load ptr, ptr %18, align 8
  %40 = add i32 %30, 2
  %41 = add nsw i32 %32, -1
  %42 = call ptr @tvb_get_string_enc(ptr noundef %39, ptr noundef %0, i32 noundef %40, i32 noundef %41, i32 noundef 0) #9
  %43 = load i32, ptr %4, align 8
  store i32 %43, ptr %7, align 4
  %44 = load i32, ptr %19, align 4
  store i32 %44, ptr %8, align 4
  %45 = load i32, ptr %20, align 4
  store i32 %45, ptr %9, align 4
  store i32 1, ptr %6, align 16
  store ptr %7, ptr %21, align 8
  store i32 1, ptr %22, align 16
  store ptr %8, ptr %23, align 8
  store i32 1, ptr %24, align 16
  store ptr %9, ptr %25, align 8
  store i32 0, ptr %26, align 16
  store ptr null, ptr %27, align 8
  %46 = call ptr @wmem_file_scope() #9
  %47 = call noalias ptr @wmem_alloc(ptr noundef %46, i64 noundef 16) #9
  %48 = load i32, ptr %7, align 4
  store i32 %48, ptr %47, align 8
  %49 = load i32, ptr %8, align 4
  %50 = getelementptr inbounds nuw i8, ptr %47, i64 4
  store i32 %49, ptr %50, align 4
  %51 = call ptr @wmem_file_scope() #9
  %52 = call noalias ptr @wmem_strdup(ptr noundef %51, ptr noundef %42) #9
  %53 = getelementptr inbounds nuw i8, ptr %47, i64 8
  store ptr %52, ptr %53, align 8
  %54 = load ptr, ptr %28, align 8
  call void @wmem_tree_insert32_array(ptr noundef %54, ptr noundef nonnull %6, ptr noundef nonnull %47) #9
  br label %55

55:                                               ; preds = %34, %38
  %56 = add nuw nsw i32 %.028, 1
  %57 = add nuw nsw i32 %56, %32
  %58 = icmp samesign ult i32 %57, %17
  br i1 %58, label %29, label %.loopexit, !llvm.loop !4

.loopexit:                                        ; preds = %55, %29, %.preheader, %5
  ret void
}